; Function Attrs: mustprogress nounwind uwtable
define dso_local noundef i64 @_ZNK4node4i18n9Converter13max_char_sizeEv(ptr nocapture noundef nonnull readonly align 8 dereferenceable(8) %this) local_unnamed_addr #3 align 2 {
entry:
  %0 = load ptr, ptr %this, align 8
  %cmp.i.not = icmp eq ptr %0, null
  br i1 %cmp.i.not, label %do.body4, label %do.end5

do.body4:                                         ; preds = %entry
  tail call void @_ZN4node6AssertERKNS_13AssertionInfoE(ptr noundef nonnull align 8 dereferenceable(24) @_ZZNK4node4i18n9Converter13max_char_sizeEvE4args) #21
  tail call void @abort() #22
  unreachable

do.end5:                                          ; preds = %entry
  %call8 = tail call signext i8 @ucnv_getMaxCharSize_74(ptr noundef nonnull %0) #21
  %conv = sext i8 %call8 to i64
  ret i64 %conv
}